target datalayout = "e-m:e-p270:32:32-p271:32:32-p272:64:64-i64:64-i128:128-f80:128-n8:16:32:64-S128"
target triple = "x86_64-pc-linux-gnu"

%"struct.folly::ExecutorBlockingList" = type { ptr, %"struct.folly::ExecutorBlockingContext" }
%"struct.folly::ExecutorBlockingContext" = type { i8, i8, ptr, %"class.folly::Range" }
%"class.folly::Range" = type { ptr, ptr }
%"class.folly::ExecutorBlockingGuard" = type { %"struct.folly::ExecutorBlockingList" }

@_ZN5folly22executor_blocking_listE = thread_local global ptr @_ZN5follyL9emptyListE, align 8

; Function Attrs: mustprogress nounwind uwtable
define linkonce_odr void @_ZN5folly5RangeIPKcEC2Ev(ptr noundef nonnull align 8 dereferenceable(16) %0) unnamed_addr #0 comdat align 2 {
  %2 = alloca ptr, align 8
  store ptr %0, ptr %2, align 8, !tbaa !85
  %3 = load ptr, ptr %2, align 8
  %4 = getelementptr inbounds nuw %"class.folly::Range", ptr %3, i32 0, i32 0
  store ptr null, ptr %4, align 8, !tbaa !87
  %5 = getelementptr inbounds nuw %"class.folly::Range", ptr %3, i32 0, i32 1
  store ptr null, ptr %5, align 8, !tbaa !88
  ret void
}

; Function Attrs: inlinehint mustprogress uwtable
define linkonce_odr void @_ZN5folly23ExecutorBlockingContextC2Ev(ptr noundef nonnull align 8 dereferenceable(32) %0) unnamed_addr #4 comdat align 2 {
  %2 = alloca ptr, align 8
  store ptr %0, ptr %2, align 8, !tbaa !65
  %3 = load ptr, ptr %2, align 8
  %4 = getelementptr inbounds nuw %"struct.folly::ExecutorBlockingContext", ptr %3, i32 0, i32 2
  store ptr null, ptr %4, align 8, !tbaa !84
  %5 = getelementptr inbounds nuw %"struct.folly::ExecutorBlockingContext", ptr %3, i32 0, i32 3
  call void @_ZN5folly5RangeIPKcEC2Ev(ptr noundef nonnull align 8 dereferenceable(16) %5)
  ret void
}

; Function Attrs: noinline noreturn nounwind uwtable
define linkonce_odr hidden void @__clang_call_terminate(ptr noundef %0) #6 comdat {
  %2 = call ptr @__cxa_begin_catch(ptr %0) #19
  call void @_ZSt9terminatev() #18
  unreachable
}

; Function Attrs: mustprogress nounwind uwtable
define linkonce_odr noundef zeroext i1 @_ZNK5folly5RangeIPKcE5emptyEv(ptr noundef nonnull align 8 dereferenceable(16) %0) #0 comdat align 2 {
  %2 = alloca ptr, align 8
  store ptr %0, ptr %2, align 8, !tbaa !85
  %3 = load ptr, ptr %2, align 8
  %4 = getelementptr inbounds nuw %"class.folly::Range", ptr %3, i32 0, i32 0
  %5 = load ptr, ptr %4, align 8, !tbaa !87
  %6 = getelementptr inbounds nuw %"class.folly::Range", ptr %3, i32 0, i32 1
  %7 = load ptr, ptr %6, align 8, !tbaa !88
  %8 = icmp eq ptr %5, %7
  ret i1 %8
}

; Function Attrs: inlinehint mustprogress uwtable
define linkonce_odr void @_ZN5folly20ExecutorBlockingListC2Ev(ptr noundef nonnull align 8 dereferenceable(40) %0) unnamed_addr #4 comdat align 2 {
  %2 = alloca ptr, align 8
  store ptr %0, ptr %2, align 8, !tbaa !52
  %3 = load ptr, ptr %2, align 8
  %4 = getelementptr inbounds nuw %"struct.folly::ExecutorBlockingList", ptr %3, i32 0, i32 1
  call void @_ZN5folly23ExecutorBlockingContextC2Ev(ptr noundef nonnull align 8 dereferenceable(32) %4)
  ret void
}

; Function Attrs: mustprogress nounwind uwtable
define void @_ZN5folly21ExecutorBlockingGuardC2ENS0_11ProhibitTagEPNS_8ExecutorENS_5RangeIPKcEE(ptr noundef nonnull align 8 dereferenceable(40) %0, ptr noundef %1, ptr %2, ptr %3) unnamed_addr #0 align 2 personality ptr @__gxx_personality_v0 {
  %5 = alloca %"class.folly::Range", align 8
  %6 = alloca ptr, align 8
  %7 = alloca ptr, align 8
  %8 = getelementptr inbounds nuw { ptr, ptr }, ptr %5, i32 0, i32 0
  store ptr %2, ptr %8, align 8
  %9 = getelementptr inbounds nuw { ptr, ptr }, ptr %5, i32 0, i32 1
  store ptr %3, ptr %9, align 8
  store ptr %0, ptr %6, align 8, !tbaa !78
  store ptr %1, ptr %7, align 8, !tbaa !7
  %10 = load ptr, ptr %6, align 8
  %11 = getelementptr inbounds nuw %"class.folly::ExecutorBlockingGuard", ptr %10, i32 0, i32 0
  invoke void @_ZN5folly20ExecutorBlockingListC2Ev(ptr noundef nonnull align 8 dereferenceable(40) %11)
          to label %12 unwind label %38

12:                                               ; preds = %4
  %13 = call align 8 ptr @llvm.threadlocal.address.p0(ptr align 8 @_ZN5folly22executor_blocking_listE)
  %14 = load ptr, ptr %13, align 8, !tbaa !52
  %15 = getelementptr inbounds nuw %"class.folly::ExecutorBlockingGuard", ptr %10, i32 0, i32 0
  call void @llvm.memcpy.p0.p0.i64(ptr align 8 %15, ptr align 8 %14, i64 40, i1 false), !tbaa.struct !80
  %16 = call align 8 ptr @llvm.threadlocal.address.p0(ptr align 8 @_ZN5folly22executor_blocking_listE)
  %17 = load ptr, ptr %16, align 8, !tbaa !52
  %18 = getelementptr inbounds nuw %"class.folly::ExecutorBlockingGuard", ptr %10, i32 0, i32 0
  %19 = getelementptr inbounds nuw %"struct.folly::ExecutorBlockingList", ptr %18, i32 0, i32 0
  store ptr %17, ptr %19, align 8, !tbaa !81
  %20 = getelementptr inbounds nuw %"class.folly::ExecutorBlockingGuard", ptr %10, i32 0, i32 0
  %21 = getelementptr inbounds nuw %"struct.folly::ExecutorBlockingList", ptr %20, i32 0, i32 1
  %22 = getelementptr inbounds nuw %"struct.folly::ExecutorBlockingContext", ptr %21, i32 0, i32 0
  store i8 1, ptr %22, align 8, !tbaa !83
  %23 = load ptr, ptr %7, align 8, !tbaa !7
  %24 = getelementptr inbounds nuw %"class.folly::ExecutorBlockingGuard", ptr %10, i32 0, i32 0
  %25 = getelementptr inbounds nuw %"struct.folly::ExecutorBlockingList", ptr %24, i32 0, i32 1
  %26 = getelementptr inbounds nuw %"struct.folly::ExecutorBlockingContext", ptr %25, i32 0, i32 2
  store ptr %23, ptr %26, align 8, !tbaa !89
  %27 = getelementptr inbounds nuw %"class.folly::ExecutorBlockingGuard", ptr %10, i32 0, i32 0
  %28 = getelementptr inbounds nuw %"struct.folly::ExecutorBlockingList", ptr %27, i32 0, i32 1
  %29 = getelementptr inbounds nuw %"struct.folly::ExecutorBlockingContext", ptr %28, i32 0, i32 1
  store i8 1, ptr %29, align 1, !tbaa !91
  %30 = call noundef zeroext i1 @_ZNK5folly5RangeIPKcE5emptyEv(ptr noundef nonnull align 8 dereferenceable(16) %5)
  br i1 %30, label %35, label %31

31:                                               ; preds = %12
  %32 = getelementptr inbounds nuw %"class.folly::ExecutorBlockingGuard", ptr %10, i32 0, i32 0
  %33 = getelementptr inbounds nuw %"struct.folly::ExecutorBlockingList", ptr %32, i32 0, i32 1
  %34 = getelementptr inbounds nuw %"struct.folly::ExecutorBlockingContext", ptr %33, i32 0, i32 3
  call void @llvm.memcpy.p0.p0.i64(ptr align 8 %34, ptr align 8 %5, i64 16, i1 false), !tbaa.struct !90
  br label %35

35:                                               ; preds = %31, %12
  %36 = getelementptr inbounds nuw %"class.folly::ExecutorBlockingGuard", ptr %10, i32 0, i32 0
  %37 = call align 8 ptr @llvm.threadlocal.address.p0(ptr align 8 @_ZN5folly22executor_blocking_listE)
  store ptr %36, ptr %37, align 8, !tbaa !52
  ret void

38:                                               ; preds = %4
  %39 = landingpad { ptr, i32 }
          catch ptr null
  %40 = extractvalue { ptr, i32 } %39, 0
  call void @__clang_call_terminate(ptr %40) #18
  unreachable
}